(dp0
Vengine
p1
S'pdflatex'
p2
sVpackages
p3
c__builtin__
set
p4
((lp5
Vamsmath
p6
aVcolor
p7
aVgraphicx
p8
aVanysize
p9
atp10
Rp11
sVfiles_with_guttermarks
p12
g4
((lp13
V/Users/michael/Downloads/TCD_Template/./chapter2.tex
p14
aS'thesis.tex'
p15
atp16
Rp17
sVsynctex
p18
I01
s.